; Function Attrs: mustprogress uwtable
define internal fastcc void @"_ZZN3nixL23parseDerivedPathMapNodeB5cxx11ERKNS_14StoreDirConfigERNS_12_GLOBAL__N_116StringViewStreamENS_22DerivationATermVersionEENK3$_0clEv"(ptr nocapture noundef nonnull readonly align 8 dereferenceable(16) %0) unnamed_addr #4 align 2 personality ptr @__gxx_personality_v0 {
  %2 = alloca %"class.std::set", align 8
  %3 = getelementptr inbounds i8, ptr %0, i64 8
  %4 = load ptr, ptr %3, align 8
  call fastcc void @_ZN3nixL12parseStringsB5cxx11ERNS_12_GLOBAL__N_116StringViewStreamEb(ptr dead_on_unwind noalias nonnull writable align 8 %2, ptr noundef nonnull align 8 dereferenceable(16) %4, i1 noundef zeroext false)
  %5 = load ptr, ptr %0, align 8
  %6 = getelementptr inbounds i8, ptr %5, i64 16
  %7 = load ptr, ptr %6, align 8
  invoke void @_ZNSt8_Rb_treeINSt7__cxx1112basic_stringIcSt11char_traitsIcESaIcEEES5_St9_IdentityIS5_ESt4lessIS5_ESaIS5_EE8_M_eraseEPSt13_Rb_tree_nodeIS5_E(ptr noundef nonnull align 8 dereferenceable(48) %5, ptr noundef %7)
          to label %_ZNSt8_Rb_treeINSt7__cxx1112basic_stringIcSt11char_traitsIcESaIcEEES5_St9_IdentityIS5_ESt4lessIS5_ESaIS5_EE5clearEv.exit.i.i.i unwind label %8

8:                                                ; preds = %1
  %9 = landingpad { ptr, i32 }
          catch ptr null
  %10 = extractvalue { ptr, i32 } %9, 0
  call void @__clang_call_terminate(ptr %10) #28
  unreachable

_ZNSt8_Rb_treeINSt7__cxx1112basic_stringIcSt11char_traitsIcESaIcEEES5_St9_IdentityIS5_ESt4lessIS5_ESaIS5_EE5clearEv.exit.i.i.i: ; preds = %1
  %11 = getelementptr inbounds i8, ptr %5, i64 8
  store ptr null, ptr %6, align 8
  %12 = getelementptr inbounds i8, ptr %5, i64 24
  store ptr %11, ptr %12, align 8
  %13 = getelementptr inbounds i8, ptr %5, i64 32
  store ptr %11, ptr %13, align 8
  %14 = getelementptr inbounds i8, ptr %5, i64 40
  store i64 0, ptr %14, align 8
  %15 = getelementptr inbounds i8, ptr %2, i64 16
  %16 = load ptr, ptr %15, align 8
  %.not.i.i.i = icmp eq ptr %16, null
  br i1 %.not.i.i.i, label %_ZNSt3setINSt7__cxx1112basic_stringIcSt11char_traitsIcESaIcEEESt4lessIS5_ESaIS5_EEaSEOS9_.exit, label %17

17:                                               ; preds = %_ZNSt8_Rb_treeINSt7__cxx1112basic_stringIcSt11char_traitsIcESaIcEEES5_St9_IdentityIS5_ESt4lessIS5_ESaIS5_EE5clearEv.exit.i.i.i
  %18 = getelementptr inbounds i8, ptr %2, i64 8
  %19 = load i32, ptr %18, align 8
  store i32 %19, ptr %11, align 8
  %20 = load ptr, ptr %15, align 8
  store ptr %20, ptr %6, align 8
  %21 = getelementptr inbounds i8, ptr %2, i64 24
  %22 = load ptr, ptr %21, align 8
  store ptr %22, ptr %12, align 8
  %23 = getelementptr inbounds i8, ptr %2, i64 32
  %24 = load ptr, ptr %23, align 8
  store ptr %24, ptr %13, align 8
  %25 = getelementptr inbounds i8, ptr %20, i64 8
  store ptr %11, ptr %25, align 8
  %26 = getelementptr inbounds i8, ptr %2, i64 40
  %27 = load i64, ptr %26, align 8
  store i64 %27, ptr %14, align 8
  store ptr null, ptr %15, align 8
  store ptr %18, ptr %21, align 8
  store ptr %18, ptr %23, align 8
  store i64 0, ptr %26, align 8
  br label %_ZNSt3setINSt7__cxx1112basic_stringIcSt11char_traitsIcESaIcEEESt4lessIS5_ESaIS5_EEaSEOS9_.exit

_ZNSt3setINSt7__cxx1112basic_stringIcSt11char_traitsIcESaIcEEESt4lessIS5_ESaIS5_EEaSEOS9_.exit: ; preds = %_ZNSt8_Rb_treeINSt7__cxx1112basic_stringIcSt11char_traitsIcESaIcEEES5_St9_IdentityIS5_ESt4lessIS5_ESaIS5_EE5clearEv.exit.i.i.i, %17
  invoke void @_ZNSt8_Rb_treeINSt7__cxx1112basic_stringIcSt11char_traitsIcESaIcEEES5_St9_IdentityIS5_ESt4lessIS5_ESaIS5_EE8_M_eraseEPSt13_Rb_tree_nodeIS5_E(ptr noundef nonnull align 8 dereferenceable(48) %2, ptr noundef null)
          to label %_ZNSt3setINSt7__cxx1112basic_stringIcSt11char_traitsIcESaIcEEESt4lessIS5_ESaIS5_EED2Ev.exit unwind label %28

28:                                               ; preds = %_ZNSt3setINSt7__cxx1112basic_stringIcSt11char_traitsIcESaIcEEESt4lessIS5_ESaIS5_EEaSEOS9_.exit
  %29 = landingpad { ptr, i32 }
          catch ptr null
  %30 = extractvalue { ptr, i32 } %29, 0
  call void @__clang_call_terminate(ptr %30) #28
  unreachable

_ZNSt3setINSt7__cxx1112basic_stringIcSt11char_traitsIcESaIcEEESt4lessIS5_ESaIS5_EED2Ev.exit: ; preds = %_ZNSt3setINSt7__cxx1112basic_stringIcSt11char_traitsIcESaIcEEESt4lessIS5_ESaIS5_EEaSEOS9_.exit
  ret void
}